; Function Attrs: mustprogress nofree norecurse nosync nounwind willreturn memory(read, inaccessiblemem: none) uwtable
define hidden noundef i64 @_ZN16MutableNUMASpace18default_chunk_sizeEv(ptr nocapture noundef nonnull readonly align 8 dereferenceable(96) %0) local_unnamed_addr #3 align 2 {
  %2 = getelementptr inbounds i8, ptr %0, i64 88
  %3 = load i64, ptr %2, align 8
  %4 = getelementptr inbounds i8, ptr %0, i64 56
  %5 = load ptr, ptr %4, align 8
  %6 = load i32, ptr %5, align 4
  %7 = sext i32 %6 to i64
  %8 = udiv i64 %3, %7
  %9 = getelementptr inbounds i8, ptr %0, i64 64
  %10 = load i64, ptr %9, align 8
  %11 = mul i64 %10, %8
  ret i64 %11
}